; Function Attrs: nounwind uwtable
define noalias noundef ptr @Abc_NtkOutputMiniAig(ptr noundef %0) local_unnamed_addr #2 {
  %2 = icmp eq ptr %0, null
  br i1 %2, label %3, label %4

3:                                                ; preds = %1
  %puts = tail call i32 @puts(ptr nonnull dereferenceable(1) @str.3)
  br label %4

4:                                                ; preds = %3, %1
  %5 = tail call ptr @Abc_FrameReadNtk(ptr noundef %0) #11
  %6 = icmp eq ptr %5, null
  br i1 %6, label %.split5, label %.split

.split5:                                          ; preds = %4
  %puts6 = tail call i32 @puts(ptr nonnull dereferenceable(1) @str.4)
  br label %.split

.split:                                           ; preds = %4, %.split5
  %.sink = phi ptr [ null, %.split5 ], [ %5, %4 ]
  %7 = tail call ptr @Abc_NtkToMiniAig(ptr noundef %.sink)
  ret ptr %7
}